target datalayout = "e-m:e-p270:32:32-p271:32:32-p272:64:64-i64:64-i128:128-f80:128-n8:16:32:64-S128"
target triple = "x86_64-pc-linux-gnu"

%struct.strbuf = type { i64, i64, ptr }
%struct.ref_namespace_info = type { ptr, i32, i8 }
%struct.refspec = type { ptr, i32, i32, i32 }
%struct.refspec_item = type { i8, ptr, ptr, ptr }

@prefetch = internal global i32 0, align 4
@__const.filter_prefetch_refspec.new_dst = private unnamed_addr constant %struct.strbuf { i64 0, i64 0, ptr @strbuf_slopbuf }, align 8
@ref_namespace = external global [9 x %struct.ref_namespace_info], align 16
@.str.189 = private unnamed_addr constant [6 x i8] c"refs/\00", align 1

; Function Attrs: inlinehint nounwind uwtable
define internal zeroext i1 @skip_prefix(ptr noundef %0, ptr noundef %1, ptr noundef %2) #5 {
  %4 = alloca i1, align 1
  %5 = alloca ptr, align 8
  %6 = alloca ptr, align 8
  %7 = alloca ptr, align 8
  store ptr %0, ptr %5, align 8, !tbaa !11
  store ptr %1, ptr %6, align 8, !tbaa !11
  store ptr %2, ptr %7, align 8, !tbaa !8
  br label %8

8:                                                ; preds = %16, %3
  %9 = load ptr, ptr %6, align 8, !tbaa !11
  %10 = load i8, ptr %9, align 1, !tbaa !119
  %11 = icmp ne i8 %10, 0
  br i1 %11, label %15, label %12

12:                                               ; preds = %8
  %13 = load ptr, ptr %5, align 8, !tbaa !11
  %14 = load ptr, ptr %7, align 8, !tbaa !8
  store ptr %13, ptr %14, align 8, !tbaa !11
  store i1 true, ptr %4, align 1
  br label %27

15:                                               ; preds = %8
  br label %16

16:                                               ; preds = %15
  %17 = load ptr, ptr %5, align 8, !tbaa !11
  %18 = getelementptr inbounds nuw i8, ptr %17, i32 1
  store ptr %18, ptr %5, align 8, !tbaa !11
  %19 = load i8, ptr %17, align 1, !tbaa !119
  %20 = sext i8 %19 to i32
  %21 = load ptr, ptr %6, align 8, !tbaa !11
  %22 = getelementptr inbounds nuw i8, ptr %21, i32 1
  store ptr %22, ptr %6, align 8, !tbaa !11
  %23 = load i8, ptr %21, align 1, !tbaa !119
  %24 = sext i8 %23 to i32
  %25 = icmp eq i32 %20, %24
  br i1 %25, label %8, label %26, !llvm.loop !175

26:                                               ; preds = %16
  store i1 false, ptr %4, align 1
  br label %27

27:                                               ; preds = %26, %12
  %28 = load i1, ptr %4, align 1
  ret i1 %28
}

; Function Attrs: inlinehint nounwind uwtable
define internal void @strbuf_addstr(ptr noundef %0, ptr noundef %1) #5 {
  %3 = alloca ptr, align 8
  %4 = alloca ptr, align 8
  store ptr %0, ptr %3, align 8, !tbaa !106
  store ptr %1, ptr %4, align 8, !tbaa !11
  %5 = load ptr, ptr %3, align 8, !tbaa !106
  %6 = load ptr, ptr %4, align 8, !tbaa !11
  %7 = load ptr, ptr %4, align 8, !tbaa !11
  %8 = call i64 @strlen(ptr noundef %7) #13
  call void @strbuf_add(ptr noundef %5, ptr noundef %6, i64 noundef %8)
  ret void
}

; Function Attrs: nounwind uwtable
define internal void @filter_prefetch_refspec(ptr noundef %0) #0 {
  %2 = alloca ptr, align 8
  %3 = alloca i32, align 4
  %4 = alloca i32, align 4
  %5 = alloca %struct.strbuf, align 8
  %6 = alloca ptr, align 8
  %7 = alloca ptr, align 8
  %8 = alloca i32, align 4
  store ptr %0, ptr %2, align 8, !tbaa !183
  call void @llvm.lifetime.start.p0(i64 4, ptr %3) #11
  %9 = load i32, ptr @prefetch, align 4, !tbaa !4
  %10 = icmp ne i32 %9, 0
  br i1 %10, label %12, label %11

11:                                               ; preds = %1
  store i32 1, ptr %4, align 4
  br label %144

12:                                               ; preds = %1
  store i32 0, ptr %3, align 4, !tbaa !4
  br label %13

13:                                               ; preds = %140, %12
  %14 = load i32, ptr %3, align 4, !tbaa !4
  %15 = load ptr, ptr %2, align 8, !tbaa !183
  %16 = getelementptr inbounds nuw %struct.refspec, ptr %15, i32 0, i32 2
  %17 = load i32, ptr %16, align 4, !tbaa !190
  %18 = icmp slt i32 %14, %17
  br i1 %18, label %19, label %143

19:                                               ; preds = %13
  call void @llvm.lifetime.start.p0(i64 24, ptr %5) #11
  call void @llvm.memcpy.p0.p0.i64(ptr align 8 %5, ptr align 8 @__const.filter_prefetch_refspec.new_dst, i64 24, i1 false)
  call void @llvm.lifetime.start.p0(i64 8, ptr %6) #11
  call void @llvm.lifetime.start.p0(i64 8, ptr %7) #11
  store ptr null, ptr %7, align 8, !tbaa !11
  %20 = load ptr, ptr %2, align 8, !tbaa !183
  %21 = getelementptr inbounds nuw %struct.refspec, ptr %20, i32 0, i32 0
  %22 = load ptr, ptr %21, align 8, !tbaa !191
  %23 = load i32, ptr %3, align 4, !tbaa !4
  %24 = sext i32 %23 to i64
  %25 = getelementptr inbounds %struct.refspec_item, ptr %22, i64 %24
  %26 = load i8, ptr %25, align 8
  %27 = lshr i8 %26, 4
  %28 = and i8 %27, 1
  %29 = zext i8 %28 to i32
  %30 = icmp ne i32 %29, 0
  br i1 %30, label %31, label %32

31:                                               ; preds = %19
  store i32 4, ptr %4, align 4
  br label %137

32:                                               ; preds = %19
  %33 = load ptr, ptr %2, align 8, !tbaa !183
  %34 = getelementptr inbounds nuw %struct.refspec, ptr %33, i32 0, i32 0
  %35 = load ptr, ptr %34, align 8, !tbaa !191
  %36 = load i32, ptr %3, align 4, !tbaa !4
  %37 = sext i32 %36 to i64
  %38 = getelementptr inbounds %struct.refspec_item, ptr %35, i64 %37
  %39 = getelementptr inbounds nuw %struct.refspec_item, ptr %38, i32 0, i32 2
  %40 = load ptr, ptr %39, align 8, !tbaa !214
  %41 = icmp ne ptr %40, null
  br i1 %41, label %42, label %64

42:                                               ; preds = %32
  %43 = load ptr, ptr %2, align 8, !tbaa !183
  %44 = getelementptr inbounds nuw %struct.refspec, ptr %43, i32 0, i32 0
  %45 = load ptr, ptr %44, align 8, !tbaa !191
  %46 = load i32, ptr %3, align 4, !tbaa !4
  %47 = sext i32 %46 to i64
  %48 = getelementptr inbounds %struct.refspec_item, ptr %45, i64 %47
  %49 = getelementptr inbounds nuw %struct.refspec_item, ptr %48, i32 0, i32 1
  %50 = load ptr, ptr %49, align 8, !tbaa !202
  %51 = icmp ne ptr %50, null
  br i1 %51, label %52, label %103

52:                                               ; preds = %42
  %53 = load ptr, ptr %2, align 8, !tbaa !183
  %54 = getelementptr inbounds nuw %struct.refspec, ptr %53, i32 0, i32 0
  %55 = load ptr, ptr %54, align 8, !tbaa !191
  %56 = load i32, ptr %3, align 4, !tbaa !4
  %57 = sext i32 %56 to i64
  %58 = getelementptr inbounds %struct.refspec_item, ptr %55, i64 %57
  %59 = getelementptr inbounds nuw %struct.refspec_item, ptr %58, i32 0, i32 1
  %60 = load ptr, ptr %59, align 8, !tbaa !202
  %61 = load ptr, ptr getelementptr inbounds ([9 x %struct.ref_namespace_info], ptr @ref_namespace, i64 0, i64 2), align 16, !tbaa !249
  %62 = call i32 @starts_with(ptr noundef %60, ptr noundef %61)
  %63 = icmp ne i32 %62, 0
  br i1 %63, label %64, label %103

64:                                               ; preds = %52, %32
  call void @llvm.lifetime.start.p0(i64 4, ptr %8) #11
  %65 = load ptr, ptr %2, align 8, !tbaa !183
  %66 = getelementptr inbounds nuw %struct.refspec, ptr %65, i32 0, i32 0
  %67 = load ptr, ptr %66, align 8, !tbaa !191
  %68 = load i32, ptr %3, align 4, !tbaa !4
  %69 = sext i32 %68 to i64
  %70 = getelementptr inbounds %struct.refspec_item, ptr %67, i64 %69
  call void @refspec_item_clear(ptr noundef %70)
  %71 = load i32, ptr %3, align 4, !tbaa !4
  %72 = add nsw i32 %71, 1
  store i32 %72, ptr %8, align 4, !tbaa !4
  br label %73

73:                                               ; preds = %93, %64
  %74 = load i32, ptr %8, align 4, !tbaa !4
  %75 = load ptr, ptr %2, align 8, !tbaa !183
  %76 = getelementptr inbounds nuw %struct.refspec, ptr %75, i32 0, i32 2
  %77 = load i32, ptr %76, align 4, !tbaa !190
  %78 = icmp slt i32 %74, %77
  br i1 %78, label %79, label %96

79:                                               ; preds = %73
  %80 = load ptr, ptr %2, align 8, !tbaa !183
  %81 = getelementptr inbounds nuw %struct.refspec, ptr %80, i32 0, i32 0
  %82 = load ptr, ptr %81, align 8, !tbaa !191
  %83 = load i32, ptr %8, align 4, !tbaa !4
  %84 = sub nsw i32 %83, 1
  %85 = sext i32 %84 to i64
  %86 = getelementptr inbounds %struct.refspec_item, ptr %82, i64 %85
  %87 = load ptr, ptr %2, align 8, !tbaa !183
  %88 = getelementptr inbounds nuw %struct.refspec, ptr %87, i32 0, i32 0
  %89 = load ptr, ptr %88, align 8, !tbaa !191
  %90 = load i32, ptr %8, align 4, !tbaa !4
  %91 = sext i32 %90 to i64
  %92 = getelementptr inbounds %struct.refspec_item, ptr %89, i64 %91
  call void @llvm.memcpy.p0.p0.i64(ptr align 8 %86, ptr align 8 %92, i64 32, i1 false), !tbaa.struct !251
  br label %93

93:                                               ; preds = %79
  %94 = load i32, ptr %8, align 4, !tbaa !4
  %95 = add nsw i32 %94, 1
  store i32 %95, ptr %8, align 4, !tbaa !4
  br label %73, !llvm.loop !252

96:                                               ; preds = %73
  %97 = load ptr, ptr %2, align 8, !tbaa !183
  %98 = getelementptr inbounds nuw %struct.refspec, ptr %97, i32 0, i32 2
  %99 = load i32, ptr %98, align 4, !tbaa !190
  %100 = add nsw i32 %99, -1
  store i32 %100, ptr %98, align 4, !tbaa !190
  %101 = load i32, ptr %3, align 4, !tbaa !4
  %102 = add nsw i32 %101, -1
  store i32 %102, ptr %3, align 4, !tbaa !4
  store i32 4, ptr %4, align 4
  call void @llvm.lifetime.end.p0(i64 4, ptr %8) #11
  br label %137

103:                                              ; preds = %52, %42
  %104 = load ptr, ptr %2, align 8, !tbaa !183
  %105 = getelementptr inbounds nuw %struct.refspec, ptr %104, i32 0, i32 0
  %106 = load ptr, ptr %105, align 8, !tbaa !191
  %107 = load i32, ptr %3, align 4, !tbaa !4
  %108 = sext i32 %107 to i64
  %109 = getelementptr inbounds %struct.refspec_item, ptr %106, i64 %108
  %110 = getelementptr inbounds nuw %struct.refspec_item, ptr %109, i32 0, i32 2
  %111 = load ptr, ptr %110, align 8, !tbaa !214
  store ptr %111, ptr %6, align 8, !tbaa !11
  %112 = load ptr, ptr getelementptr inbounds ([9 x %struct.ref_namespace_info], ptr @ref_namespace, i64 0, i64 7), align 16, !tbaa !249
  call void @strbuf_addstr(ptr noundef %5, ptr noundef %112)
  %113 = load ptr, ptr %6, align 8, !tbaa !11
  %114 = call zeroext i1 @skip_prefix(ptr noundef %113, ptr noundef @.str.189, ptr noundef %7)
  br i1 %114, label %117, label %115

115:                                              ; preds = %103
  %116 = load ptr, ptr %6, align 8, !tbaa !11
  store ptr %116, ptr %7, align 8, !tbaa !11
  br label %117

117:                                              ; preds = %115, %103
  %118 = load ptr, ptr %7, align 8, !tbaa !11
  call void @strbuf_addstr(ptr noundef %5, ptr noundef %118)
  %119 = call ptr @strbuf_detach(ptr noundef %5, ptr noundef null)
  %120 = load ptr, ptr %2, align 8, !tbaa !183
  %121 = getelementptr inbounds nuw %struct.refspec, ptr %120, i32 0, i32 0
  %122 = load ptr, ptr %121, align 8, !tbaa !191
  %123 = load i32, ptr %3, align 4, !tbaa !4
  %124 = sext i32 %123 to i64
  %125 = getelementptr inbounds %struct.refspec_item, ptr %122, i64 %124
  %126 = getelementptr inbounds nuw %struct.refspec_item, ptr %125, i32 0, i32 2
  store ptr %119, ptr %126, align 8, !tbaa !214
  %127 = load ptr, ptr %2, align 8, !tbaa !183
  %128 = getelementptr inbounds nuw %struct.refspec, ptr %127, i32 0, i32 0
  %129 = load ptr, ptr %128, align 8, !tbaa !191
  %130 = load i32, ptr %3, align 4, !tbaa !4
  %131 = sext i32 %130 to i64
  %132 = getelementptr inbounds %struct.refspec_item, ptr %129, i64 %131
  %133 = load i8, ptr %132, align 8
  %134 = and i8 %133, -2
  %135 = or i8 %134, 1
  store i8 %135, ptr %132, align 8
  %136 = load ptr, ptr %6, align 8, !tbaa !11
  call void @free(ptr noundef %136) #11
  store i32 0, ptr %4, align 4
  br label %137

137:                                              ; preds = %117, %96, %31
  call void @llvm.lifetime.end.p0(i64 8, ptr %7) #11
  call void @llvm.lifetime.end.p0(i64 8, ptr %6) #11
  call void @llvm.lifetime.end.p0(i64 24, ptr %5) #11
  %138 = load i32, ptr %4, align 4
  switch i32 %138, label %147 [
    i32 0, label %139
    i32 4, label %140
  ]

139:                                              ; preds = %137
  br label %140

140:                                              ; preds = %139, %137
  %141 = load i32, ptr %3, align 4, !tbaa !4
  %142 = add nsw i32 %141, 1
  store i32 %142, ptr %3, align 4, !tbaa !4
  br label %13, !llvm.loop !253

143:                                              ; preds = %13
  store i32 0, ptr %4, align 4
  br label %144

144:                                              ; preds = %143, %11
  call void @llvm.lifetime.end.p0(i64 4, ptr %3) #11
  %145 = load i32, ptr %4, align 4
  switch i32 %145, label %147 [
    i32 0, label %146
    i32 1, label %146
  ]

146:                                              ; preds = %144, %144
  ret void

147:                                              ; preds = %144, %137
  unreachable
}