; Function Attrs: nounwind uwtable
define internal fastcc void @filter_prefetch_refspec(ptr noundef nonnull captures(none) %0) unnamed_addr #0 {
  %2 = alloca %struct.strbuf, align 8
  %3 = load i32, ptr @prefetch, align 4, !tbaa !9
  %.not = icmp eq i32 %3, 0
  br i1 %.not, label %.loopexit, label %.preheader

.preheader:                                       ; preds = %1
  %4 = getelementptr inbounds nuw i8, ptr %0, i64 12
  %5 = load i32, ptr %4, align 4, !tbaa !105
  %6 = icmp sgt i32 %5, 0
  br i1 %6, label %.lr.ph45, label %.loopexit

.lr.ph45:                                         ; preds = %.preheader, %56
  %7 = phi i32 [ %57, %56 ], [ %5, %.preheader ]
  %.03144 = phi i32 [ %58, %56 ], [ 0, %.preheader ]
  call void @llvm.lifetime.start.p0(i64 24, ptr nonnull %2) #20
  call void @llvm.memcpy.p0.p0.i64(ptr noundef nonnull align 8 dereferenceable(24) %2, ptr noundef nonnull align 8 dereferenceable(24) @__const.report_set_head.buf_prefix, i64 24, i1 false)
  %8 = load ptr, ptr %0, align 8, !tbaa !106
  %9 = sext i32 %.03144 to i64
  %10 = getelementptr inbounds %struct.refspec_item, ptr %8, i64 %9
  %11 = load i8, ptr %10, align 8
  %12 = and i8 %11, 16
  %.not34 = icmp eq i8 %12, 0
  br i1 %.not34, label %13, label %56

13:                                               ; preds = %.lr.ph45
  %14 = getelementptr inbounds nuw i8, ptr %10, i64 16
  %15 = load ptr, ptr %14, align 8, !tbaa !121
  %.not35 = icmp eq ptr %15, null
  br i1 %.not35, label %22, label %16

16:                                               ; preds = %13
  %17 = getelementptr inbounds nuw i8, ptr %10, i64 8
  %18 = load ptr, ptr %17, align 8, !tbaa !115
  %.not36 = icmp eq ptr %18, null
  br i1 %.not36, label %._crit_edge48, label %19

19:                                               ; preds = %16
  %20 = load ptr, ptr getelementptr inbounds nuw (i8, ptr @ref_namespace, i64 32), align 16, !tbaa !219
  %21 = call i32 @starts_with(ptr noundef nonnull %18, ptr noundef %20) #20
  %.not37 = icmp eq i32 %21, 0
  %.pre49 = load ptr, ptr %0, align 8, !tbaa !106
  br i1 %.not37, label %._crit_edge48, label %22

22:                                               ; preds = %19, %13
  %23 = phi ptr [ %.pre49, %19 ], [ %8, %13 ]
  %24 = getelementptr inbounds %struct.refspec_item, ptr %23, i64 %9
  call void @refspec_item_clear(ptr noundef %24) #20
  %.041 = add nsw i32 %.03144, 1
  %25 = load i32, ptr %4, align 4, !tbaa !105
  %26 = icmp slt i32 %.041, %25
  br i1 %26, label %.lr.ph.preheader, label %._crit_edge

.lr.ph.preheader:                                 ; preds = %22
  %27 = sext i32 %.041 to i64
  br label %.lr.ph

.lr.ph:                                           ; preds = %.lr.ph.preheader, %.lr.ph
  %indvars.iv = phi i64 [ %27, %.lr.ph.preheader ], [ %indvars.iv.next, %.lr.ph ]
  %.0.in42 = phi i32 [ %.03144, %.lr.ph.preheader ], [ %35, %.lr.ph ]
  %28 = load ptr, ptr %0, align 8, !tbaa !106
  %29 = sext i32 %.0.in42 to i64
  %30 = getelementptr inbounds %struct.refspec_item, ptr %28, i64 %29
  %31 = getelementptr inbounds %struct.refspec_item, ptr %28, i64 %indvars.iv
  call void @llvm.memcpy.p0.p0.i64(ptr noundef nonnull align 8 dereferenceable(32) %30, ptr noundef nonnull align 8 dereferenceable(32) %31, i64 32, i1 false), !tbaa.struct !221
  %indvars.iv.next = add nsw i64 %indvars.iv, 1
  %32 = load i32, ptr %4, align 4, !tbaa !105
  %33 = sext i32 %32 to i64
  %34 = icmp slt i64 %indvars.iv.next, %33
  %35 = trunc nsw i64 %indvars.iv to i32
  br i1 %34, label %.lr.ph, label %._crit_edge, !llvm.loop !222

._crit_edge:                                      ; preds = %.lr.ph, %22
  %.lcssa = phi i32 [ %25, %22 ], [ %32, %.lr.ph ]
  %36 = add nsw i32 %.lcssa, -1
  store i32 %36, ptr %4, align 4, !tbaa !105
  %37 = add nsw i32 %.03144, -1
  br label %56

._crit_edge48:                                    ; preds = %19, %16
  %38 = phi ptr [ %8, %16 ], [ %.pre49, %19 ]
  %39 = getelementptr inbounds %struct.refspec_item, ptr %38, i64 %9, i32 2
  %40 = load ptr, ptr %39, align 8, !tbaa !121
  %41 = load ptr, ptr getelementptr inbounds nuw (i8, ptr @ref_namespace, i64 112), align 16, !tbaa !219
  %42 = call i64 @strlen(ptr noundef nonnull dereferenceable(1) %41) #22
  call void @strbuf_add(ptr noundef nonnull %2, ptr noundef nonnull %41, i64 noundef %42) #20
  %scevgep = getelementptr i8, ptr %40, i64 5
  br label %43

43:                                               ; preds = %44, %._crit_edge48
  %.07.i = phi ptr [ %40, %._crit_edge48 ], [ %46, %44 ]
  %.06.i.idx = phi i64 [ 0, %._crit_edge48 ], [ %.06.i.add, %44 ]
  %exitcond = icmp eq i64 %.06.i.idx, 5
  br i1 %exitcond, label %skip_prefix.exit, label %44

44:                                               ; preds = %43
  %.06.i.ptr = getelementptr inbounds nuw i8, ptr @.str.189, i64 %.06.i.idx
  %45 = load i8, ptr %.06.i.ptr, align 1, !tbaa !125
  %46 = getelementptr inbounds nuw i8, ptr %.07.i, i64 1
  %47 = load i8, ptr %.07.i, align 1, !tbaa !125
  %.06.i.add = add nuw nsw i64 %.06.i.idx, 1
  %48 = icmp eq i8 %47, %45
  br i1 %48, label %43, label %skip_prefix.exit, !llvm.loop !155

skip_prefix.exit:                                 ; preds = %43, %44
  %.038 = phi ptr [ %40, %44 ], [ %scevgep, %43 ]
  %49 = call i64 @strlen(ptr noundef nonnull dereferenceable(1) %.038) #22
  call void @strbuf_add(ptr noundef nonnull %2, ptr noundef nonnull %.038, i64 noundef %49) #20
  %50 = call ptr @strbuf_detach(ptr noundef nonnull %2, ptr noundef null) #20
  %51 = load ptr, ptr %0, align 8, !tbaa !106
  %52 = getelementptr inbounds %struct.refspec_item, ptr %51, i64 %9, i32 2
  store ptr %50, ptr %52, align 8, !tbaa !121
  %53 = getelementptr inbounds %struct.refspec_item, ptr %51, i64 %9
  %54 = load i8, ptr %53, align 8
  %55 = or i8 %54, 1
  store i8 %55, ptr %53, align 8
  call void @free(ptr noundef %40) #20
  %.pre = load i32, ptr %4, align 4, !tbaa !105
  br label %56

56:                                               ; preds = %.lr.ph45, %skip_prefix.exit, %._crit_edge
  %57 = phi i32 [ %36, %._crit_edge ], [ %.pre, %skip_prefix.exit ], [ %7, %.lr.ph45 ]
  %.1 = phi i32 [ %37, %._crit_edge ], [ %.03144, %skip_prefix.exit ], [ %.03144, %.lr.ph45 ]
  call void @llvm.lifetime.end.p0(i64 24, ptr nonnull %2) #20
  %58 = add nsw i32 %.1, 1
  %59 = icmp slt i32 %58, %57
  br i1 %59, label %.lr.ph45, label %.loopexit, !llvm.loop !223

.loopexit:                                        ; preds = %56, %.preheader, %1
  ret void
}